(lp0
(dp1
S'pretty_name'
p2
S'Adelaide'
p3
sS'folder_name'
p4
S'adelaide'
p5
sS'mat_names'
p6
(lp7
S'Adelaide'
p8
asa(dp9
g2
S'Algeria'
p10
sg4
S'algeria'
p11
sg6
(lp12
S'Algeria'
p13
asa(dp14
g2
S'Allahabad'
p15
sg4
S'allahabad'
p16
sg6
(lp17
S'Allahabad'
p18
asa(dp19
g2
S'Amargosa'
p20
sg4
S'amargosa'
p21
sg6
(lp22
S'amargosa'
p23
asa(dp24
g2
S'Amsterdam Island'
p25
sg4
S'amsterdam'
p26
sg6
(lp27
S'Amsterdam Island'
p28
asa(dp29
g2
S'Arecibo'
p30
sg4
S'arecibo'
p31
sg6
(lp32
S'Arecibo'
p33
asa(dp34
g2
S'Argentina'
p35
sg4
S'argentina'
p36
sg6
(lp37
S'Argentina'
p38
asa(dp39
g2
S'Ascension'
p40
sg4
S'ascension'
p41
sg6
(lp42
S'ascension'
p43
aS'ascensione'
p44
asa(dp45
g2
S'Austria'
p46
sg4
S'austria'
p47
sg6
(lp48
S'Austria'
p49
asa(dp50
g2
S'Azerbaijan'
p51
sg4
S'azerbaijan'
p52
sg6
(lp53
S'Azerbaijan'
p54
asa(dp55
g2
S'Belgrade'
p56
sg4
S'belgrade'
p57
sg6
(lp58
S'Belgrade'
p59
aS'Serbia'
p60
asa(dp61
g2
S'Bermuda'
p62
sg4
S'bermuda'
p63
sg6
(lp64
S'Bermuda'
p65
asa(dp66
g2
S'Berthoud'
p67
sg4
S'berthoud'
p68
sg6
(lp69
S'Berthoud'
p70
asa(dp71
g2
S'Boston'
p72
sg4
S'boston'
p73
sg6
(lp74
S'Boston'
p75
asa(dp76
g2
S'Boulder'
p77
sg4
S'boulder'
p78
sg6
(lp79
S'Boulder'
p80
asa(dp81
g2
S'Cairns (GLD360)'
p82
sg4
S'cairns'
p83
sg6
(lp84
S'cairns'
p85
asa(dp86
g2
S'Castlerock'
p87
sg4
S'castlerock'
p88
sg6
(lp89
S'CastleRock'
p90
asa(dp91
g2
S'Cheyenne'
p92
sg4
S'cheyenne'
p93
sg6
(lp94
S'Cheyenne'
p95
asa(dp96
g2
S'Chistochina'
p97
sg4
S'chistochina'
p98
sg6
(lp99
S'Chistochina'
p100
aS'Chistochina '
p101
aS'chisto__'
p102
aS'chisto'
p103
aS'chistoch'
p104
asa(dp105
g2
S'Cobb Lake'
p106
sg4
S'cobblake'
p107
sg6
(lp108
S'CobbLake'
p109
aS'cobb lake'
p110
asa(dp111
g2
S'College Park'
p112
sg4
S'collegepark'
p113
sg6
(lp114
S'CollegePark'
p115
asa(dp116
g2
S'Colorado Springs'
p117
sg4
S'coloradosprings'
p118
sg6
(lp119
S'coloradosprings'
p120
asa(dp121
g2
S'Crete'
p122
sg4
S'crete'
p123
sg6
(lp124
S'Crete'
p125
asa(dp126
g2
S'Cyprus'
p127
sg4
S'cyprus'
p128
sg6
(lp129
S'Cyprus'
p130
asa(dp131
g2
S'Dartmouth'
p132
sg4
S'dartmouth'
p133
sg6
(lp134
S'dartmouth'
p135
asa(dp136
g2
S'Deltajunction'
p137
sg4
S'deltajunction'
p138
sg6
(lp139
S'deltajunction'
p140
asa(dp141
g2
S'Dotlake'
p142
sg4
S'dotlake'
p143
sg6
(lp144
S'DotLake'
p145
aS'dot lake'
p146
asa(dp147
g2
S'Ecuador'
p148
sg4
S'ecuador'
p149
sg6
(lp150
S'Ecuador'
p151
asa(dp152
g2
S'Egypt'
p153
sg4
S'egypt'
p154
sg6
(lp155
S'Egypt'
p156
asa(dp157
g2
S'Elazig'
p158
sg4
S'elazig'
p159
sg6
(lp160
S'Elazig'
p161
asa(dp162
g2
S'Ethiopia'
p163
sg4
S'ethiopia'
p164
sg6
(lp165
S'Ethiopia'
p166
aS'bahir dar'
p167
asa(dp168
g2
S'Ferraz'
p169
sg4
S'ferraz'
p170
sg6
(lp171
S'EACF'
p172
asa(dp173
g2
S'Fiji'
p174
sg4
S'fiji'
p175
sg6
(lp176
S'Fiji'
p177
asa(dp178
g2
S'Fort Collins'
p179
sg4
S'fortcollins'
p180
sg6
(lp181
S'fortcollins'
p182
asa(dp183
g2
S'Fort Yukon'
p184
sg4
S'fortyukon'
p185
sg6
(lp186
S'FortYukon'
p187
asa(dp188
g2
S'Fountain'
p189
sg4
S'fountain'
p190
sg6
(lp191
S'fountain'
p192
asa(dp193
g2
S'Gakona'
p194
sg4
S'gakona'
p195
sg6
(lp196
S'Gakona'
p197
asa(dp198
g2
S'Gander'
p199
sg4
S'gander'
p200
sg6
(lp201
S'Gander'
p202
asa(dp203
g2
S'Goddard'
p204
sg4
S'goddard'
p205
sg6
(lp206
S'Goddard'
p207
asa(dp208
g2
S'Graz'
p209
sg4
S'graz'
p210
sg6
(lp211
S'Graz'
p212
asa(dp213
g2
S'Greatfalls'
p214
sg4
S'greatfalls'
p215
sg6
(lp216
S'GreatFalls'
p217
aS'great falls'
p218
asa(dp219
g2
S'Green Mountain'
p220
sg4
S'greenmountain'
p221
sg6
(lp222
S'greenmountain'
p223
asa(dp224
g2
S'Haarp'
p225
sg4
S'haarp'
p226
sg6
(lp227
S'Haarp'
p228
aS'haarp (gakona)'
p229
asa(dp230
g2
S'Hawaii (Big Island)'
p231
sg4
S'hawaii'
p232
sg6
(lp233
S'Hawaii'
p234
asa(dp235
g2
S'Healy'
p236
sg4
S'healy'
p237
sg6
(lp238
S'Healy'
p239
asa(dp240
g2
S'Hobart'
p241
sg4
S'hobart'
p242
sg6
(lp243
S'Hobart'
p244
asa(dp245
g2
S'Homer'
p246
sg4
S'homer'
p247
sg6
(lp248
S'Homer'
p249
asa(dp250
g2
S'India (GLD360)'
p251
sg4
S'india'
p252
sg6
(lp253
S'india'
p254
asa(dp255
g2
S'Ireland'
p256
sg4
S'ireland'
p257
sg6
(lp258
S'Dublin'
p259
aS'Ireland'
p260
asa(dp261
g2
S'Israel (Hermon)'
p262
sg4
S'israel_hermon'
p263
sg6
(lp264
S'Israel-Hermon'
p265
asa(dp266
g2
S'Israel (Sde Boker)'
p267
sg4
S'israel_sdeboker'
p268
sg6
(lp269
S'Israel-SB'
p270
aS'israel'
p271
aS'isreal-sb'
p272
asa(dp273
g2
S'Israel (Tel Aviv)'
p274
sg4
S'israel_telaviv'
p275
sg6
(lp276
S'Israel-TAU'
p277
asa(dp278
g2
S'Itapetininga'
p279
sg4
S'itapetininga'
p280
sg6
(lp281
S'brazil_2'
p282
asa(dp283
g2
S'Japan'
p284
sg4
S'japan'
p285
sg6
(lp286
S'Onagawa'
p287
aS'Japan'
p288
asa(dp289
g2
S'Juneau'
p290
sg4
S'juneau'
p291
sg6
(lp292
S'Juneau'
p293
asa(dp294
g2
S'Kauai (GLD360)'
p295
sg4
S'kauai'
p296
sg6
(lp297
S'Kauai'
p298
aS'Kauai Coffee Co.'
p299
asa(dp300
g2
S'Kerguelen Island'
p301
sg4
S'kerguelen'
p302
sg6
(lp303
S'Kerguelen Island'
p304
aS'kerguelen'
p305
asa(dp306
g2
S'Ketchikan'
p307
sg4
S'ketchikan'
p308
sg6
(lp309
S'Ketchikan'
p310
asa(dp311
g2
S'Keywest'
p312
sg4
S'keywest'
p313
sg6
(lp314
S'KeyWest'
p315
aS'key west'
p316
asa(dp317
g2
S'Kodiak'
p318
sg4
S'kodiak'
p319
sg6
(lp320
S'Kodiak'
p321
aS'Port Lions'
p322
asa(dp323
g2
S'Kolkata'
p324
sg4
S'kolkata'
p325
sg6
(lp326
S'Kolkata'
p327
aS'kolkata'
p328
asa(dp329
g2
S'Kwajalein'
p330
sg4
S'kwajalein'
p331
sg6
(lp332
S'Kwajalein'
p333
asa(dp334
g2
S'Las Vegas'
p335
sg4
S'lasvegas'
p336
sg6
(lp337
S'LasVegas'
p338
asa(dp339
g2
S'Libya'
p340
sg4
S'libya'
p341
sg6
(lp342
S'Libya'
p343
asa(dp344
g2
S'Littleton'
p345
sg4
S'littleton'
p346
sg6
(lp347
S'littleton'
p348
asa(dp349
g2
S'Malaysia'
p350
sg4
S'malaysia'
p351
sg6
(lp352
S'Malaysia'
p353
asa(dp354
g2
S'Melbourne'
p355
sg4
S'melbourne'
p356
sg6
(lp357
S'Melbourne'
p358
asa(dp359
g2
S'Midway'
p360
sg4
S'midway'
p361
sg6
(lp362
S'midway'
p363
aS'midway atoll'
p364
asa(dp365
g2
S'Minot'
p366
sg4
S'minot'
p367
sg6
(lp368
S'Minot'
p369
asa(dp370
g2
S'Mongolia'
p371
sg4
S'mongolia'
p372
sg6
(lp373
S'Mongolia'
p374
asa(dp375
g2
S'Morocco'
p376
sg4
S'morocco'
p377
sg6
(lp378
S'Morocco'
p379
asa(dp380
g2
S'Mountainvillage'
p381
sg4
S'mountainvillage'
p382
sg6
(lp383
S'mountainvillage'
p384
asa(dp385
g2
S'Nainital'
p386
sg4
S'nainital'
p387
sg6
(lp388
S'Nainital'
p389
asa(dp390
g2
S'Nancay'
p391
sg4
S'nancay'
p392
sg6
(lp393
S'Nancay'
p394
asa(dp395
g2
S'Nathaniel B Palmer'
p396
sg4
S'nathaniel_b_palmer'
p397
sg6
(lp398
S'nathaniel b palmer'
p399
asa(dp400
g2
S'Norvick'
p401
sg4
S'norvick'
p402
sg6
(lp403
S'norvick'
p404
asa(dp405
g2
S'Norway'
p406
sg4
S'norway'
p407
sg6
(lp408
S'Norway'
p409
asa(dp410
g2
S'Oklahoma Central Region'
p411
sg4
S'oklahoma_central'
p412
sg6
(lp413
S'OklahomaRegionC'
p414
asa(dp415
g2
S'Oklahoma Eastern Region'
p416
sg4
S'oklahoma_east'
p417
sg6
(lp418
S'OklahomaRegionE'
p419
asa(dp420
g2
S'Oklahoma Northern Region'
p421
sg4
S'oklahoma_north'
p422
sg6
(lp423
S'OklahomaRegionN'
p424
asa(dp425
g2
S'Oklahoma Southern Region'
p426
sg4
S'oklahoma_south'
p427
sg6
(lp428
S'OklahomaRegionS'
p429
asa(dp430
g2
S'Oklahoma Western Region'
p431
sg4
S'oklahoma_west'
p432
sg6
(lp433
S'OklahomaRegionW'
p434
asa(dp435
g2
S'Oklahoma Corner'
p436
sg4
S'oklahoma_corner'
p437
sg6
(lp438
S'OklahomaRegionNW'
p439
aS'oklahomaRegionNW'
p440
asa(dp441
g2
S'Penguin P3'
p442
sg4
S'penguin_p3'
p443
sg6
(lp444
S'Penguin at AGO P3'
p445
asa(dp446
g2
S'Penguin WAIS Divide'
p447
sg4
S'penguin_wais'
p448
sg6
(lp449
S'Penguin at WAIS Divide'
p450
asa(dp451
g2
S'Penguin South Pole'
p452
sg4
S'penguin_sp'
p453
sg6
(lp454
S'Penguin at South Pole'
p455
asa(dp456
g2
S'Packard'
p457
sg4
S'packard'
p458
sg6
(lp459
S'packard roof'
p460
asa(dp461
g2
S'Palmer'
p462
sg4
S'palmer'
p463
sg6
(lp464
S'PalmerStation'
p465
aS'palmer station'
p466
aS'palmerbb'
p467
aS'palmer__'
p468
aS'palmer'
p469
asa(dp470
g2
S'Parker'
p471
sg4
S'parker'
p472
sg6
(lp473
S'parker'
p474
asa(dp475
g2
S'Paxson'
p476
sg4
S'paxson'
p477
sg6
(lp478
S'Paxson'
p479
asa(dp480
g2
S'Perth'
p481
sg4
S'perth'
p482
sg6
(lp483
S'Perth'
p484
asa(dp485
g2
S'Peru'
p486
sg4
S'peru'
p487
sg6
(lp488
S'Peru'
p489
asa(dp490
g2
S'Philmont'
p491
sg4
S'philmont'
p492
sg6
(lp493
S'Philmont'
p494
asa(dp495
g2
S'Poker Flat'
p496
sg4
S'pokerflat'
p497
sg6
(lp498
S'Poker Flat'
p499
aS'PokerFlat'
p500
asa(dp501
g2
S'Pueblo'
p502
sg4
S'pueblo'
p503
sg6
(lp504
S'pueblo'
p505
asa(dp506
g2
S'Rothera'
p507
sg4
S'rothera'
p508
sg6
(lp509
S'Rothera'
p510
asa(dp511
g2
S'Rye'
p512
sg4
S'rye'
p513
sg6
(lp514
S'rye'
p515
asa(dp516
g2
S'Sanae'
p517
sg4
S'sanae'
p518
sg6
(lp519
S'Sanae'
p520
aS'sanae'
p521
asa(dp522
g2
S'SPAWAR San Diego'
p523
sg4
S'sandiego_spawar'
p524
sg6
(lp525
S'spawar'
p526
asa(dp527
g2
S'Santa Cruz'
p528
sg4
S'santacruz'
p529
sg6
(lp530
S'santacruz'
p531
aS'lmsctf'
p532
aS'lmscfb610'
p533
aS'santa cruz'
p534
aS'santa_cruz'
p535
asa(dp536
g2
S'Sheridan'
p537
sg4
S'sheridan'
p538
sg6
(lp539
S'Sheridan'
p540
asa(dp541
g2
S'Shishmaref'
p542
sg4
S'shishmaref'
p543
sg6
(lp544
S'shishmaref'
p545
asa(dp546
g2
S'Sienacollege'
p547
sg4
S'sienacollege'
p548
sg6
(lp549
S'SienaCollege'
p550
aS'siena college'
p551
aS'Siena'
p552
asa(dp553
g2
S'Slana'
p554
sg4
S'slana'
p555
sg6
(lp556
S'Slana'
p557
asa(dp558
g2
S'Sondrestrom'
p559
sg4
S'sondrestrom'
p560
sg6
(lp561
S'sondrestrom'
p562
asa(dp563
g2
S'South Africa'
p564
sg4
S'southafrica'
p565
sg6
(lp566
S'SouthAfrica'
p567
asa(dp568
g2
S'South Pole'
p569
sg4
S'southpole'
p570
sg6
(lp571
S'SouthPole1'
p572
aS'South Pole'
p573
aS'spole___'
p574
aS'spole_sn'
p575
aS'SouthPole'
p576
asa(dp577
g2
S'Stanford'
p578
sg4
S'stanford'
p579
sg6
(lp580
S'stanford'
p581
asa(dp582
g2
S'Swider'
p583
sg4
S'swider'
p584
sg6
(lp585
S'Swider'
p586
asa(dp587
g2
S'Sydney'
p588
sg4
S'sydney'
p589
sg6
(lp590
S'sydney'
p591
asa(dp592
g2
S'Talkeetna'
p593
sg4
S'talkeetna'
p594
sg6
(lp595
S'talkeetna'
p596
asa(dp597
g2
S'Tangaroa'
p598
sg4
S'tangaroa'
p599
sg6
(lp600
S'tangaroa'
p601
asa(dp602
g2
S'Tashkent'
p603
sg4
S'tashkent'
p604
sg6
(lp605
S'Tashkent'
p606
aS'Uzbekistan'
p607
asa(dp608
g2
S'Taylor'
p609
sg4
S'taylor'
p610
sg6
(lp611
S'Taylor'
p612
aS'Taylor_2'
p613
asa(dp614
g2
S'Toolik'
p615
sg4
S'toolik'
p616
sg6
(lp617
S'Toolik'
p618
asa(dp619
g2
S'Trinidad'
p620
sg4
S'trinidad'
p621
sg6
(lp622
S'trinidad'
p623
asa(dp624
g2
S'Tunisia'
p625
sg4
S'tunisia'
p626
sg6
(lp627
S'Tunisia'
p628
aS'Tunis'
p629
asa(dp630
g2
S'Sharjah'
p631
sg4
S'uae'
p632
sg6
(lp633
S'UAE'
p634
aS'sharjah'
p635
asa(dp636
g2
S'Valdez'
p637
sg4
S'valdez'
p638
sg6
(lp639
S'Valdez'
p640
asa(dp641
g2
S'Varanasi'
p642
sg4
S'veranasi'
p643
sg6
(lp644
S'Varanasi'
p645
asa(dp646
g2
S'Vernasky Station'
p647
sg4
S'vernadsky'
p648
sg6
(lp649
S'vernadsky'
p650
asa(dp651
g2
S'Vieques'
p652
sg4
S'vieques'
p653
sg6
(lp654
S'vieques'
p655
asa(dp656
g2
S'Vietnam'
p657
sg4
S'vietnam'
p658
sg6
(lp659
S'vietnam'
p660
asa(dp661
g2
S'Waimea'
p662
sg4
S'waimea'
p663
sg6
(lp664
S'waimea'
p665
aS'waimeia'
p666
asa(dp667
g2
S'Wallops Island'
p668
sg4
S'wallopsisland'
p669
sg6
(lp670
S'WallopsIslandVLF'
p671
asa(dp672
g2
S'Walsenburg'
p673
sg4
S'walsenburg'
p674
sg6
(lp675
S'Walsenburg'
p676
asa(dp677
g2
S'Wilcox'
p678
sg4
S'wilcox'
p679
sg6
(lp680
S'Wilcox'
p681
asa(dp682
g2
S'Yakutat'
p683
sg4
S'yakutat'
p684
sg6
(lp685
S'Yakutat'
p686
asa.